target datalayout = "e-m:e-p270:32:32-p271:32:32-p272:64:64-i64:64-i128:128-f80:128-n8:16:32:64-S128"
target triple = "x86_64-unknown-linux-gnu"

; Function Attrs: inlinehint mustprogress nounwind uwtable
define linkonce_odr noundef nonnull align 8 dereferenceable(8) ptr @_ZSt3maxImERKT_S2_S2_(ptr noundef nonnull align 8 dereferenceable(8) %__a, ptr noundef nonnull align 8 dereferenceable(8) %__b) #6 comdat {
entry:
  %retval = alloca ptr, align 8
  %__a.addr = alloca ptr, align 8
  %__b.addr = alloca ptr, align 8
  store ptr %__a, ptr %__a.addr, align 8, !tbaa !3
  store ptr %__b, ptr %__b.addr, align 8, !tbaa !3
  %0 = load ptr, ptr %__a.addr, align 8, !tbaa !3
  %1 = load i64, ptr %0, align 8, !tbaa !39
  %2 = load ptr, ptr %__b.addr, align 8, !tbaa !3
  %3 = load i64, ptr %2, align 8, !tbaa !39
  %cmp = icmp ult i64 %1, %3
  br i1 %cmp, label %if.then, label %if.end

if.then:                                          ; preds = %entry
  %4 = load ptr, ptr %__b.addr, align 8, !tbaa !3
  store ptr %4, ptr %retval, align 8
  br label %return

if.end:                                           ; preds = %entry
  %5 = load ptr, ptr %__a.addr, align 8, !tbaa !3
  store ptr %5, ptr %retval, align 8
  br label %return

return:                                           ; preds = %if.end, %if.then
  %6 = load ptr, ptr %retval, align 8
  ret ptr %6
}

; Function Attrs: mustprogress uwtable
define noundef i64 @_ZNK8QuantLib15FDVanillaEngine14safeGridPointsEmd(ptr noundef nonnull align 8 dereferenceable(240) %this, i64 noundef %gridPoints, double noundef %residualTime) #2 align 2 {
entry:
  %this.addr = alloca ptr, align 8
  %gridPoints.addr = alloca i64, align 8
  %residualTime.addr = alloca double, align 8
  %ref.tmp = alloca i64, align 8
  store ptr %this, ptr %this.addr, align 8, !tbaa !3
  store i64 %gridPoints, ptr %gridPoints.addr, align 8, !tbaa !39
  store double %residualTime, ptr %residualTime.addr, align 8, !tbaa !14
  call void @llvm.lifetime.start.p0(i64 8, ptr %ref.tmp) #18
  %0 = load double, ptr %residualTime.addr, align 8, !tbaa !14
  %cmp = fcmp ogt double %0, 1.000000e+00
  br i1 %cmp, label %cond.true, label %cond.false

cond.true:                                        ; preds = %entry
  %1 = load double, ptr %residualTime.addr, align 8, !tbaa !14
  %sub = fsub double %1, 1.000000e+00
  %2 = call double @llvm.fmuladd.f64(double %sub, double 2.000000e+00, double 1.000000e+01)
  %conv = fptoui double %2 to i64
  br label %cond.end

cond.false:                                       ; preds = %entry
  br label %cond.end

cond.end:                                         ; preds = %cond.false, %cond.true
  %cond = phi i64 [ %conv, %cond.true ], [ 10, %cond.false ]
  store i64 %cond, ptr %ref.tmp, align 8, !tbaa !39
  %call = call noundef nonnull align 8 dereferenceable(8) ptr @_ZSt3maxImERKT_S2_S2_(ptr noundef nonnull align 8 dereferenceable(8) %gridPoints.addr, ptr noundef nonnull align 8 dereferenceable(8) %ref.tmp)
  %3 = load i64, ptr %call, align 8, !tbaa !39
  call void @llvm.lifetime.end.p0(i64 8, ptr %ref.tmp) #18
  ret i64 %3
}