; Function Attrs: mustprogress nofree norecurse nosync nounwind willreturn memory(none) uwtable
define noundef i64 @_ZNK8QuantLib15FDVanillaEngine14safeGridPointsEmd(ptr nocapture noundef nonnull readnone align 8 dereferenceable(240) %this, i64 noundef %gridPoints, double noundef %residualTime) local_unnamed_addr #11 align 2 {
entry:
  %cmp = fcmp ogt double %residualTime, 1.000000e+00
  %sub = fadd double %residualTime, -1.000000e+00
  %0 = tail call double @llvm.fmuladd.f64(double %sub, double 2.000000e+00, double 1.000000e+01)
  %conv = fptoui double %0 to i64
  %cond = select i1 %cmp, i64 %conv, i64 10
  %.sroa.speculated = tail call i64 @llvm.umax.i64(i64 %gridPoints, i64 %cond)
  ret i64 %.sroa.speculated
}